	.text
	.file	"fib.ll"
	.globl	fib                             # -- Begin function fib
	.p2align	4, 0x90
	.type	fib,@function
fib:                                    # @fib
	.cfi_startproc
# %bb.0:                                # %entry
	cmpl	$2, %edi
	jg	.LBB0_2
# %bb.1:                                # %then
	movl	$1, %eax
	retq
.LBB0_2:                                # %else
	pushq	%rbp
	.cfi_def_cfa_offset 16
	pushq	%rbx
	.cfi_def_cfa_offset 24
	pushq	%rax
	.cfi_def_cfa_offset 32
	.cfi_offset %rbx, -24
	.cfi_offset %rbp, -16
	movl	%edi, %ebx
	leal	-1(%rbx), %edi
	addl	$-2, %ebx
	callq	fib@PLT
	movl	%eax, %ebp
	movl	%ebx, %edi
	callq	fib@PLT
	addl	%ebp, %eax
	addq	$8, %rsp
	.cfi_def_cfa_offset 24
	popq	%rbx
	.cfi_def_cfa_offset 16
	popq	%rbp
	.cfi_def_cfa_offset 8
	retq
.Lfunc_end0:
	.size	fib, .Lfunc_end0-fib
	.cfi_endproc
                                        # -- End function
	.globl	main                            # -- Begin function main
	.p2align	4, 0x90
	.type	main,@function
main:                                   # @main
	.cfi_startproc
# %bb.0:
	pushq	%rax
	.cfi_def_cfa_offset 16
	movl	$12, %edi
	callq	fib@PLT
	popq	%rcx
	.cfi_def_cfa_offset 8
	retq
.Lfunc_end1:
	.size	main, .Lfunc_end1-main
	.cfi_endproc
                                        # -- End function
	.section	".note.GNU-stack","",@progbits
