	.text
	.file	"box.ll"
	.globl	main                            # -- Begin function main
	.p2align	4, 0x90
	.type	main,@function
main:                                   # @main
	.cfi_startproc
# %bb.0:                                # %entry
	pushq	%rax
	.cfi_def_cfa_offset 16
	callq	Main_new@PLT
	movq	%rax, %rdi
	callq	Main_main@PLT
	xorl	%eax, %eax
	popq	%rcx
	.cfi_def_cfa_offset 8
	retq
.Lfunc_end0:
	.size	main, .Lfunc_end0-main
	.cfi_endproc
                                        # -- End function
	.globl	Main_main                       # -- Begin function Main_main
	.p2align	4, 0x90
	.type	Main_main,@function
Main_main:                              # @Main_main
	.cfi_startproc
# %bb.0:
	subq	$24, %rsp
	.cfi_def_cfa_offset 32
	movq	%rdi, 8(%rsp)
	movl	$7, 20(%rsp)
	movl	$0, 4(%rsp)
	movl	$7, %edi
	callq	create_Int@PLT
	movq	(%rax), %rcx
	movq	%rax, %rdi
	callq	*32(%rcx)
	movl	8(%rax), %esi
	movl	%esi, 4(%rsp)
	movq	8(%rsp), %rdi
	movq	(%rdi), %rax
	callq	*48(%rax)
	addq	$24, %rsp
	.cfi_def_cfa_offset 8
	retq
.Lfunc_end1:
	.size	Main_main, .Lfunc_end1-Main_main
	.cfi_endproc
                                        # -- End function
	.globl	Main_new                        # -- Begin function Main_new
	.p2align	4, 0x90
	.type	Main_new,@function
Main_new:                               # @Main_new
	.cfi_startproc
# %bb.0:                                # %entry
	pushq	%rbp
	.cfi_def_cfa_offset 16
	.cfi_offset %rbp, -16
	movq	%rsp, %rbp
	.cfi_def_cfa_register %rbp
	pushq	%rbx
	pushq	%rax
	.cfi_offset %rbx, -24
	movq	_Main_vtable_prototype@GOTPCREL(%rip), %rbx
	movl	4(%rbx), %edi
	callq	malloc@PLT
	testq	%rax, %rax
	je	.LBB2_2
# %bb.1:                                # %ok.0
	movq	%rsp, %rcx
	leaq	-16(%rcx), %rsp
	movq	%rax, -16(%rcx)
	movq	%rbx, (%rax)
	leaq	-8(%rbp), %rsp
	popq	%rbx
	popq	%rbp
	.cfi_def_cfa %rsp, 8
	retq
.LBB2_2:                                # %abort
	.cfi_def_cfa %rbp, 16
	callq	abort@PLT
.Lfunc_end2:
	.size	Main_new, .Lfunc_end2-Main_new
	.cfi_endproc
                                        # -- End function
	.type	str.Object,@object              # @str.Object
	.section	.rodata,"a",@progbits
str.Object:
	.asciz	"Object"
	.size	str.Object, 7

	.type	_Object_vtable_prototype,@object # @_Object_vtable_prototype
	.globl	_Object_vtable_prototype
	.p2align	4
_Object_vtable_prototype:
	.long	0                               # 0x0
	.long	0+8
	.quad	str.Object
	.quad	Object_abort
	.quad	Object_type_name
	.quad	Object_copy
	.size	_Object_vtable_prototype, 40

	.type	str.Int,@object                 # @str.Int
str.Int:
	.asciz	"Int"
	.size	str.Int, 4

	.type	_Int_vtable_prototype,@object   # @_Int_vtable_prototype
	.globl	_Int_vtable_prototype
	.p2align	4
_Int_vtable_prototype:
	.long	1                               # 0x1
	.long	0+16
	.quad	str.Int
	.quad	Object_abort
	.quad	Object_type_name
	.quad	Object_copy
	.size	_Int_vtable_prototype, 40

	.type	str.Bool,@object                # @str.Bool
str.Bool:
	.asciz	"Bool"
	.size	str.Bool, 5

	.type	_Bool_vtable_prototype,@object  # @_Bool_vtable_prototype
	.globl	_Bool_vtable_prototype
	.p2align	4
_Bool_vtable_prototype:
	.long	2                               # 0x2
	.long	0+16
	.quad	str.Bool
	.quad	Object_abort
	.quad	Object_type_name
	.quad	Object_copy
	.size	_Bool_vtable_prototype, 40

	.type	str.String,@object              # @str.String
str.String:
	.asciz	"String"
	.size	str.String, 7

	.type	_String_vtable_prototype,@object # @_String_vtable_prototype
	.globl	_String_vtable_prototype
	.p2align	4
_String_vtable_prototype:
	.long	3                               # 0x3
	.long	0+16
	.quad	str.String
	.quad	Object_abort
	.quad	Object_type_name
	.quad	Object_copy
	.quad	String_length
	.quad	String_concat
	.quad	String_substr
	.size	_String_vtable_prototype, 64

	.type	str.IO,@object                  # @str.IO
str.IO:
	.asciz	"IO"
	.size	str.IO, 3

	.type	_IO_vtable_prototype,@object    # @_IO_vtable_prototype
	.globl	_IO_vtable_prototype
	.p2align	4
_IO_vtable_prototype:
	.long	4                               # 0x4
	.long	0+8
	.quad	str.IO
	.quad	Object_abort
	.quad	Object_type_name
	.quad	Object_copy
	.quad	IO_out_string
	.quad	IO_out_int
	.quad	IO_in_string
	.quad	IO_in_int
	.size	_IO_vtable_prototype, 72

	.type	str.Main,@object                # @str.Main
str.Main:
	.asciz	"Main"
	.size	str.Main, 5

	.type	_Main_vtable_prototype,@object  # @_Main_vtable_prototype
	.globl	_Main_vtable_prototype
	.p2align	4
_Main_vtable_prototype:
	.long	5                               # 0x5
	.long	0+8
	.quad	str.Main
	.quad	Object_abort
	.quad	Object_type_name
	.quad	Object_copy
	.quad	IO_out_string
	.quad	IO_out_int
	.quad	IO_in_string
	.quad	IO_in_int
	.quad	Main_main
	.size	_Main_vtable_prototype, 80

	.type	str.1,@object                   # @str.1
str.1:
	.asciz	"<basic class>"
	.size	str.1, 14

	.type	String.1,@object                # @String.1
	.globl	String.1
	.p2align	3
String.1:
	.quad	_String_vtable_prototype
	.quad	str.1
	.size	String.1, 16

	.type	str.0,@object                   # @str.0
str.0:
	.asciz	"box.cl"
	.size	str.0, 7

	.type	String.0,@object                # @String.0
	.globl	String.0
	.p2align	3
String.0:
	.quad	_String_vtable_prototype
	.quad	str.0
	.size	String.0, 16

	.section	".note.GNU-stack","",@progbits
